target datalayout = "e-m:e-p270:32:32-p271:32:32-p272:64:64-i64:64-i128:128-f80:128-n8:16:32:64-S128"
target triple = "x86_64-pc-linux-gnu"

%struct.sockaddr_un = type { i16, [108 x i8] }

@.str.9 = private unnamed_addr constant [1 x i8] zeroinitializer, align 1
@.str.10 = private unnamed_addr constant [8 x i8] c"AF_UNIX\00", align 1

; Function Attrs: nounwind sspstrong uwtable
define internal i64 @unixsocket_len(ptr noundef %0, i32 noundef %1) #0 {
  %3 = alloca ptr, align 8
  %4 = alloca i32, align 4
  %5 = alloca ptr, align 8
  %6 = alloca ptr, align 8
  store ptr %0, ptr %3, align 8, !tbaa !104
  store i32 %1, ptr %4, align 4, !tbaa !27
  call void @llvm.lifetime.start.p0(i64 8, ptr %5) #24
  %7 = load ptr, ptr %3, align 8, !tbaa !104
  %8 = getelementptr inbounds nuw %struct.sockaddr_un, ptr %7, i32 0, i32 1
  %9 = getelementptr inbounds [108 x i8], ptr %8, i64 0, i64 0
  store ptr %9, ptr %5, align 8, !tbaa !30
  call void @llvm.lifetime.start.p0(i64 8, ptr %6) #24
  %10 = load ptr, ptr %3, align 8, !tbaa !104
  %11 = load i32, ptr %4, align 4, !tbaa !27
  %12 = zext i32 %11 to i64
  %13 = getelementptr inbounds nuw i8, ptr %10, i64 %12
  store ptr %13, ptr %6, align 8, !tbaa !30
  br label %14

14:                                               ; preds = %26, %2
  %15 = load ptr, ptr %5, align 8, !tbaa !30
  %16 = load ptr, ptr %6, align 8, !tbaa !30
  %17 = icmp ult ptr %15, %16
  br i1 %17, label %18, label %24

18:                                               ; preds = %14
  %19 = load ptr, ptr %6, align 8, !tbaa !30
  %20 = getelementptr inbounds i8, ptr %19, i64 -1
  %21 = load i8, ptr %20, align 1, !tbaa !51
  %22 = sext i8 %21 to i32
  %23 = icmp eq i32 %22, 0
  br label %24

24:                                               ; preds = %18, %14
  %25 = phi i1 [ false, %14 ], [ %23, %18 ]
  br i1 %25, label %26, label %29

26:                                               ; preds = %24
  %27 = load ptr, ptr %6, align 8, !tbaa !30
  %28 = getelementptr inbounds i8, ptr %27, i32 -1
  store ptr %28, ptr %6, align 8, !tbaa !30
  br label %14, !llvm.loop !106

29:                                               ; preds = %24
  %30 = load ptr, ptr %6, align 8, !tbaa !30
  %31 = load ptr, ptr %5, align 8, !tbaa !30
  %32 = ptrtoint ptr %30 to i64
  %33 = ptrtoint ptr %31 to i64
  %34 = sub i64 %32, %33
  call void @llvm.lifetime.end.p0(i64 8, ptr %6) #24
  call void @llvm.lifetime.end.p0(i64 8, ptr %5) #24
  ret i64 %34
}

; Function Attrs: inlinehint nounwind sspstrong uwtable
define internal i64 @rbimpl_strlen(ptr noundef nonnull %0) #5 {
  %2 = alloca ptr, align 8
  store ptr %0, ptr %2, align 8, !tbaa !30
  %3 = load ptr, ptr %2, align 8, !tbaa !30
  %4 = call i64 @strlen(ptr noundef %3) #30
  ret i64 %4
}

; Function Attrs: nounwind sspstrong uwtable
define i64 @rsock_unixpath_str(ptr noundef %0, i32 noundef %1) #0 {
  %3 = alloca i64, align 8
  %4 = alloca ptr, align 8
  %5 = alloca i32, align 4
  %6 = alloca i64, align 8
  %7 = alloca i32, align 4
  store ptr %0, ptr %4, align 8, !tbaa !104
  store i32 %1, ptr %5, align 4, !tbaa !27
  call void @llvm.lifetime.start.p0(i64 8, ptr %6) #24
  %8 = load ptr, ptr %4, align 8, !tbaa !104
  %9 = load i32, ptr %5, align 4, !tbaa !27
  %10 = call i64 @unixsocket_len(ptr noundef %8, i32 noundef %9)
  store i64 %10, ptr %6, align 8, !tbaa !31
  %11 = load i64, ptr %6, align 8, !tbaa !31
  %12 = icmp sge i64 %11, 0
  br i1 %12, label %13, label %25

13:                                               ; preds = %2
  br i1 false, label %14, label %17

14:                                               ; preds = %13
  %15 = load i64, ptr %6, align 8, !tbaa !31
  %16 = call i1 @llvm.is.constant.i64(i64 %15)
  br label %17

17:                                               ; preds = %14, %13
  %18 = phi i1 [ false, %13 ], [ %16, %14 ]
  %19 = select i1 %18, ptr @rb_str_new_static, ptr @rb_str_new
  %20 = load ptr, ptr %4, align 8, !tbaa !104
  %21 = getelementptr inbounds nuw %struct.sockaddr_un, ptr %20, i32 0, i32 1
  %22 = getelementptr inbounds [108 x i8], ptr %21, i64 0, i64 0
  %23 = load i64, ptr %6, align 8, !tbaa !31
  %24 = call i64 %19(ptr noundef %22, i64 noundef %23)
  store i64 %24, ptr %3, align 8
  store i32 1, ptr %7, align 4
  br label %27

25:                                               ; preds = %2
  %26 = call i64 @rbimpl_str_new_cstr(ptr noundef @.str.9)
  store i64 %26, ptr %3, align 8
  store i32 1, ptr %7, align 4
  br label %27

27:                                               ; preds = %25, %17
  call void @llvm.lifetime.end.p0(i64 8, ptr %6) #24
  %28 = load i64, ptr %3, align 8
  ret i64 %28
}

; Function Attrs: inlinehint nounwind sspstrong uwtable
define internal i64 @rbimpl_str_new_cstr(ptr noundef nonnull %0) #5 {
  %2 = alloca ptr, align 8
  %3 = alloca i64, align 8
  store ptr %0, ptr %2, align 8, !tbaa !30
  call void @llvm.lifetime.start.p0(i64 8, ptr %3) #24
  %4 = load ptr, ptr %2, align 8, !tbaa !30
  %5 = call i64 @rbimpl_strlen(ptr noundef %4)
  store i64 %5, ptr %3, align 8, !tbaa !31
  %6 = load ptr, ptr %2, align 8, !tbaa !30
  %7 = load i64, ptr %3, align 8, !tbaa !31
  %8 = call i64 @rb_str_new_static(ptr noundef %6, i64 noundef %7)
  call void @llvm.lifetime.end.p0(i64 8, ptr %3) #24
  ret i64 %8
}

; Function Attrs: nounwind sspstrong uwtable
define i64 @rsock_unixaddr(ptr noundef %0, i32 noundef %1) #0 {
  %3 = alloca ptr, align 8
  %4 = alloca i32, align 4
  store ptr %0, ptr %3, align 8, !tbaa !104
  store i32 %1, ptr %4, align 4, !tbaa !27
  %5 = call i64 @rbimpl_str_new_cstr(ptr noundef @.str.10)
  %6 = load ptr, ptr %3, align 8, !tbaa !104
  %7 = load i32, ptr %4, align 4, !tbaa !27
  %8 = call i64 @rsock_unixpath_str(ptr noundef %6, i32 noundef %7)
  %9 = call i64 @rb_assoc_new(i64 noundef %5, i64 noundef %8)
  ret i64 %9
}