; Function Attrs: nounwind sspstrong uwtable
define i64 @rsock_unixaddr(ptr noundef %0, i32 noundef %1) local_unnamed_addr #0 {
  %3 = tail call i64 @rb_str_new_static(ptr noundef nonnull @.str.10, i64 noundef 7) #21
  %4 = zext i32 %1 to i64
  %5 = tail call i64 @llvm.umin.i64(i64 %4, i64 2)
  br label %6

6:                                                ; preds = %8, %2
  %.0.idx.i.i = phi i64 [ %4, %2 ], [ %.0.add.i.i, %8 ]
  %7 = icmp sgt i64 %.0.idx.i.i, 2
  br i1 %7, label %8, label %unixsocket_len.exit.i

8:                                                ; preds = %6
  %.0.add.i.i = add nsw i64 %.0.idx.i.i, -1
  %.ptr.i.i = getelementptr inbounds i8, ptr %0, i64 %.0.add.i.i
  %9 = load i8, ptr %.ptr.i.i, align 1, !tbaa !49
  %10 = icmp eq i8 %9, 0
  br i1 %10, label %6, label %unixsocket_len.exit.thread.i, !llvm.loop !93

unixsocket_len.exit.i:                            ; preds = %6
  %11 = icmp ugt i32 %1, 1
  br i1 %11, label %unixsocket_len.exit.thread.i, label %14

unixsocket_len.exit.thread.i:                     ; preds = %8, %unixsocket_len.exit.i
  %.0.idx.lcssa.i7.i = phi i64 [ %5, %unixsocket_len.exit.i ], [ %.0.idx.i.i, %8 ]
  %gepdiff.i.i = add nsw i64 %.0.idx.lcssa.i7.i, -2
  %12 = getelementptr inbounds nuw i8, ptr %0, i64 2
  %13 = tail call i64 @rb_str_new(ptr noundef nonnull %12, i64 noundef %gepdiff.i.i) #21
  br label %rsock_unixpath_str.exit

14:                                               ; preds = %unixsocket_len.exit.i
  %15 = tail call i64 @rb_str_new_static(ptr noundef nonnull @.str.9, i64 noundef 0) #21
  br label %rsock_unixpath_str.exit

rsock_unixpath_str.exit:                          ; preds = %unixsocket_len.exit.thread.i, %14
  %.0.i = phi i64 [ %13, %unixsocket_len.exit.thread.i ], [ %15, %14 ]
  %16 = tail call i64 @rb_assoc_new(i64 noundef %3, i64 noundef %.0.i) #21
  ret i64 %16
}